; Function Attrs: mustprogress uwtable
define noalias ptr @lean_io_initializing(ptr noundef readnone captures(none) %0) local_unnamed_addr #0 {
  %.b = load i1, ptr @_ZN4leanL14g_initializingE, align 1
  tail call void @lean_inc_heartbeat()
  %2 = tail call noalias ptr @mi_malloc_small(i64 noundef 24) #27
  %3 = icmp eq ptr %2, null
  br i1 %3, label %4, label %_ZN4lean15io_result_mk_okEP11lean_object.exit

4:                                                ; preds = %1
  tail call void @lean_internal_panic_out_of_memory() #28
  unreachable

_ZN4lean15io_result_mk_okEP11lean_object.exit:    ; preds = %1
  %5 = select i1 %.b, ptr inttoptr (i64 1 to ptr), ptr inttoptr (i64 3 to ptr)
  %6 = getelementptr inbounds nuw i8, ptr %2, i64 4
  store i32 1, ptr %2, align 4, !tbaa !7
  store i32 131096, ptr %6, align 4
  %7 = getelementptr inbounds nuw i8, ptr %2, i64 8
  store ptr %5, ptr %7, align 8, !tbaa !3
  %8 = getelementptr inbounds nuw i8, ptr %2, i64 16
  store ptr inttoptr (i64 1 to ptr), ptr %8, align 8, !tbaa !3
  ret ptr %2
}